; Function Attrs: mustprogress nofree norecurse nosync nounwind memory(read, argmem: readwrite, inaccessiblemem: none) uwtable
define internal void @_ZN2cv12cpu_baseline12_GLOBAL__N_113vlineSmooth5NItNS_12_GLOBAL__N_113ufixedpoint32EEEvPKPKT0_S7_iPT_i(ptr noundef readonly captures(none) %0, ptr noundef readonly captures(none) %1, i32 %2, ptr noundef writeonly captures(none) %3, i32 noundef %4) #17 {
  %6 = icmp sgt i32 %4, 0
  br i1 %6, label %.lr.ph, label %._crit_edge

.lr.ph:                                           ; preds = %5
  %7 = load ptr, ptr %0, align 8, !tbaa !1818
  %8 = load i32, ptr %1, align 4, !tbaa !73, !noalias !1836
  %9 = zext i32 %8 to i64
  %10 = getelementptr inbounds nuw i8, ptr %1, i64 4
  %11 = getelementptr inbounds nuw i8, ptr %0, i64 8
  %12 = load ptr, ptr %11, align 8, !tbaa !1818
  %13 = load i32, ptr %10, align 4, !tbaa !73, !noalias !1839
  %14 = zext i32 %13 to i64
  %15 = getelementptr inbounds nuw i8, ptr %1, i64 8
  %16 = getelementptr inbounds nuw i8, ptr %0, i64 16
  %17 = load ptr, ptr %16, align 8, !tbaa !1818
  %18 = load i32, ptr %15, align 4, !tbaa !73, !noalias !1842
  %19 = zext i32 %18 to i64
  %20 = getelementptr inbounds nuw i8, ptr %1, i64 12
  %21 = getelementptr inbounds nuw i8, ptr %0, i64 24
  %22 = load ptr, ptr %21, align 8, !tbaa !1818
  %23 = load i32, ptr %20, align 4, !tbaa !73, !noalias !1845
  %24 = zext i32 %23 to i64
  %25 = getelementptr inbounds nuw i8, ptr %1, i64 16
  %26 = getelementptr inbounds nuw i8, ptr %0, i64 32
  %27 = load ptr, ptr %26, align 8, !tbaa !1818
  %28 = load i32, ptr %25, align 4, !tbaa !73, !noalias !1848
  %29 = zext i32 %28 to i64
  %wide.trip.count = zext nneg i32 %4 to i64
  br label %30

._crit_edge:                                      ; preds = %30, %5
  ret void

30:                                               ; preds = %.lr.ph, %30
  %indvars.iv = phi i64 [ 0, %.lr.ph ], [ %indvars.iv.next, %30 ]
  %31 = getelementptr inbounds nuw %"class.cv::(anonymous namespace)::ufixedpoint32", ptr %7, i64 %indvars.iv
  %32 = load i32, ptr %31, align 4, !tbaa !73, !noalias !1836
  %33 = zext i32 %32 to i64
  %34 = mul nuw i64 %33, %9
  %35 = getelementptr inbounds nuw %"class.cv::(anonymous namespace)::ufixedpoint32", ptr %12, i64 %indvars.iv
  %36 = load i32, ptr %35, align 4, !tbaa !73, !noalias !1839
  %37 = zext i32 %36 to i64
  %38 = mul nuw i64 %37, %14
  %39 = tail call i64 @llvm.uadd.sat.i64(i64 %34, i64 %38)
  %40 = getelementptr inbounds nuw %"class.cv::(anonymous namespace)::ufixedpoint32", ptr %17, i64 %indvars.iv
  %41 = load i32, ptr %40, align 4, !tbaa !73, !noalias !1842
  %42 = zext i32 %41 to i64
  %43 = mul nuw i64 %42, %19
  %44 = tail call i64 @llvm.uadd.sat.i64(i64 %39, i64 %43)
  %45 = getelementptr inbounds nuw %"class.cv::(anonymous namespace)::ufixedpoint32", ptr %22, i64 %indvars.iv
  %46 = load i32, ptr %45, align 4, !tbaa !73, !noalias !1845
  %47 = zext i32 %46 to i64
  %48 = mul nuw i64 %47, %24
  %49 = tail call i64 @llvm.uadd.sat.i64(i64 %44, i64 %48)
  %50 = getelementptr inbounds nuw %"class.cv::(anonymous namespace)::ufixedpoint32", ptr %27, i64 %indvars.iv
  %51 = load i32, ptr %50, align 4, !tbaa !73, !noalias !1848
  %52 = zext i32 %51 to i64
  %53 = mul nuw i64 %52, %29
  %54 = tail call i64 @llvm.uadd.sat.i64(i64 %49, i64 %53)
  %55 = add i64 %54, 2147483648
  %56 = lshr i64 %55, 32
  %.sroa.speculated.i = tail call i64 @llvm.umin.i64(i64 range(i64 0, 4294967296) %56, i64 65535)
  %57 = trunc nuw i64 %.sroa.speculated.i to i16
  %58 = getelementptr inbounds nuw i16, ptr %3, i64 %indvars.iv
  store i16 %57, ptr %58, align 2, !tbaa !400
  %indvars.iv.next = add nuw nsw i64 %indvars.iv, 1
  %exitcond.not = icmp eq i64 %indvars.iv.next, %wide.trip.count
  br i1 %exitcond.not, label %._crit_edge, label %30, !llvm.loop !1851
}